target datalayout = "e-m:e-p270:32:32-p271:32:32-p272:64:64-i64:64-i128:128-f80:128-n8:16:32:64-S128"
target triple = "x86_64-pc-linux-gnu"

%struct.NormalizeContext = type { ptr, [4 x i8], [4 x i8], i32, float, float, [4 x i8], i32, [4 x i32], [4 x i32], i32, i32, i32, i32, [3 x %struct.NormalizeHistory], [3 x %struct.NormalizeHistory], ptr, [3 x [65536 x i16]], ptr, ptr }
%struct.NormalizeHistory = type { ptr, i64 }
%struct.AVChannelLayout = type { i32, i32, %union.anon.1, ptr }
%union.anon.1 = type { i64 }
%struct.AVRational = type { i32, i32 }
%struct.AVFrame = type { [8 x ptr], [8 x i32], ptr, i32, i32, i32, i32, i32, %struct.AVRational, i64, i64, %struct.AVRational, i32, ptr, i32, i32, [8 x ptr], ptr, i32, ptr, i32, i32, i32, i32, i32, i32, i32, i64, ptr, i32, ptr, ptr, i64, i64, i64, i64, ptr, %struct.AVChannelLayout, i64 }

; Function Attrs: nounwind uwtable
define internal void @process_planar(ptr noundef %0, ptr noundef %1, ptr noundef %2) #2 {
  %4 = alloca ptr, align 8
  %5 = alloca ptr, align 8
  %6 = alloca ptr, align 8
  %7 = alloca i32, align 4
  %8 = alloca i32, align 4
  %9 = alloca ptr, align 8
  %10 = alloca ptr, align 8
  %11 = alloca ptr, align 8
  %12 = alloca ptr, align 8
  %13 = alloca ptr, align 8
  %14 = alloca ptr, align 8
  %15 = alloca ptr, align 8
  %16 = alloca ptr, align 8
  %17 = alloca i32, align 4
  store ptr %0, ptr %4, align 8, !tbaa !22
  store ptr %1, ptr %5, align 8, !tbaa !26
  store ptr %2, ptr %6, align 8, !tbaa !26
  call void @llvm.lifetime.start.p0(i64 4, ptr %7) #6
  store i32 0, ptr %7, align 4, !tbaa !38
  br label %18

18:                                               ; preds = %197, %3
  %19 = load i32, ptr %7, align 4, !tbaa !38
  %20 = load ptr, ptr %5, align 8, !tbaa !26
  %21 = getelementptr inbounds nuw %struct.AVFrame, ptr %20, i32 0, i32 4
  %22 = load i32, ptr %21, align 4, !tbaa !85
  %23 = icmp slt i32 %19, %22
  br i1 %23, label %25, label %24

24:                                               ; preds = %18
  store i32 2, ptr %8, align 4
  call void @llvm.lifetime.end.p0(i64 4, ptr %7) #6
  br label %200

25:                                               ; preds = %18
  call void @llvm.lifetime.start.p0(i64 8, ptr %9) #6
  %26 = load ptr, ptr %5, align 8, !tbaa !26
  %27 = getelementptr inbounds nuw %struct.AVFrame, ptr %26, i32 0, i32 0
  %28 = getelementptr inbounds [8 x ptr], ptr %27, i64 0, i64 2
  %29 = load ptr, ptr %28, align 8, !tbaa !84
  %30 = load i32, ptr %7, align 4, !tbaa !38
  %31 = load ptr, ptr %5, align 8, !tbaa !26
  %32 = getelementptr inbounds nuw %struct.AVFrame, ptr %31, i32 0, i32 1
  %33 = getelementptr inbounds [8 x i32], ptr %32, i64 0, i64 2
  %34 = load i32, ptr %33, align 8, !tbaa !38
  %35 = mul nsw i32 %30, %34
  %36 = sext i32 %35 to i64
  %37 = getelementptr inbounds i8, ptr %29, i64 %36
  store ptr %37, ptr %9, align 8, !tbaa !84
  call void @llvm.lifetime.start.p0(i64 8, ptr %10) #6
  %38 = load ptr, ptr %5, align 8, !tbaa !26
  %39 = getelementptr inbounds nuw %struct.AVFrame, ptr %38, i32 0, i32 0
  %40 = getelementptr inbounds [8 x ptr], ptr %39, i64 0, i64 0
  %41 = load ptr, ptr %40, align 8, !tbaa !84
  %42 = load i32, ptr %7, align 4, !tbaa !38
  %43 = load ptr, ptr %5, align 8, !tbaa !26
  %44 = getelementptr inbounds nuw %struct.AVFrame, ptr %43, i32 0, i32 1
  %45 = getelementptr inbounds [8 x i32], ptr %44, i64 0, i64 0
  %46 = load i32, ptr %45, align 8, !tbaa !38
  %47 = mul nsw i32 %42, %46
  %48 = sext i32 %47 to i64
  %49 = getelementptr inbounds i8, ptr %41, i64 %48
  store ptr %49, ptr %10, align 8, !tbaa !84
  call void @llvm.lifetime.start.p0(i64 8, ptr %11) #6
  %50 = load ptr, ptr %5, align 8, !tbaa !26
  %51 = getelementptr inbounds nuw %struct.AVFrame, ptr %50, i32 0, i32 0
  %52 = getelementptr inbounds [8 x ptr], ptr %51, i64 0, i64 1
  %53 = load ptr, ptr %52, align 8, !tbaa !84
  %54 = load i32, ptr %7, align 4, !tbaa !38
  %55 = load ptr, ptr %5, align 8, !tbaa !26
  %56 = getelementptr inbounds nuw %struct.AVFrame, ptr %55, i32 0, i32 1
  %57 = getelementptr inbounds [8 x i32], ptr %56, i64 0, i64 1
  %58 = load i32, ptr %57, align 4, !tbaa !38
  %59 = mul nsw i32 %54, %58
  %60 = sext i32 %59 to i64
  %61 = getelementptr inbounds i8, ptr %53, i64 %60
  store ptr %61, ptr %11, align 8, !tbaa !84
  call void @llvm.lifetime.start.p0(i64 8, ptr %12) #6
  %62 = load ptr, ptr %5, align 8, !tbaa !26
  %63 = getelementptr inbounds nuw %struct.AVFrame, ptr %62, i32 0, i32 0
  %64 = getelementptr inbounds [8 x ptr], ptr %63, i64 0, i64 3
  %65 = load ptr, ptr %64, align 8, !tbaa !84
  %66 = load i32, ptr %7, align 4, !tbaa !38
  %67 = load ptr, ptr %5, align 8, !tbaa !26
  %68 = getelementptr inbounds nuw %struct.AVFrame, ptr %67, i32 0, i32 1
  %69 = getelementptr inbounds [8 x i32], ptr %68, i64 0, i64 3
  %70 = load i32, ptr %69, align 4, !tbaa !38
  %71 = mul nsw i32 %66, %70
  %72 = sext i32 %71 to i64
  %73 = getelementptr inbounds i8, ptr %65, i64 %72
  store ptr %73, ptr %12, align 8, !tbaa !84
  call void @llvm.lifetime.start.p0(i64 8, ptr %13) #6
  %74 = load ptr, ptr %6, align 8, !tbaa !26
  %75 = getelementptr inbounds nuw %struct.AVFrame, ptr %74, i32 0, i32 0
  %76 = getelementptr inbounds [8 x ptr], ptr %75, i64 0, i64 2
  %77 = load ptr, ptr %76, align 8, !tbaa !84
  %78 = load i32, ptr %7, align 4, !tbaa !38
  %79 = load ptr, ptr %6, align 8, !tbaa !26
  %80 = getelementptr inbounds nuw %struct.AVFrame, ptr %79, i32 0, i32 1
  %81 = getelementptr inbounds [8 x i32], ptr %80, i64 0, i64 2
  %82 = load i32, ptr %81, align 8, !tbaa !38
  %83 = mul nsw i32 %78, %82
  %84 = sext i32 %83 to i64
  %85 = getelementptr inbounds i8, ptr %77, i64 %84
  store ptr %85, ptr %13, align 8, !tbaa !84
  call void @llvm.lifetime.start.p0(i64 8, ptr %14) #6
  %86 = load ptr, ptr %6, align 8, !tbaa !26
  %87 = getelementptr inbounds nuw %struct.AVFrame, ptr %86, i32 0, i32 0
  %88 = getelementptr inbounds [8 x ptr], ptr %87, i64 0, i64 0
  %89 = load ptr, ptr %88, align 8, !tbaa !84
  %90 = load i32, ptr %7, align 4, !tbaa !38
  %91 = load ptr, ptr %6, align 8, !tbaa !26
  %92 = getelementptr inbounds nuw %struct.AVFrame, ptr %91, i32 0, i32 1
  %93 = getelementptr inbounds [8 x i32], ptr %92, i64 0, i64 0
  %94 = load i32, ptr %93, align 8, !tbaa !38
  %95 = mul nsw i32 %90, %94
  %96 = sext i32 %95 to i64
  %97 = getelementptr inbounds i8, ptr %89, i64 %96
  store ptr %97, ptr %14, align 8, !tbaa !84
  call void @llvm.lifetime.start.p0(i64 8, ptr %15) #6
  %98 = load ptr, ptr %6, align 8, !tbaa !26
  %99 = getelementptr inbounds nuw %struct.AVFrame, ptr %98, i32 0, i32 0
  %100 = getelementptr inbounds [8 x ptr], ptr %99, i64 0, i64 1
  %101 = load ptr, ptr %100, align 8, !tbaa !84
  %102 = load i32, ptr %7, align 4, !tbaa !38
  %103 = load ptr, ptr %6, align 8, !tbaa !26
  %104 = getelementptr inbounds nuw %struct.AVFrame, ptr %103, i32 0, i32 1
  %105 = getelementptr inbounds [8 x i32], ptr %104, i64 0, i64 1
  %106 = load i32, ptr %105, align 4, !tbaa !38
  %107 = mul nsw i32 %102, %106
  %108 = sext i32 %107 to i64
  %109 = getelementptr inbounds i8, ptr %101, i64 %108
  store ptr %109, ptr %15, align 8, !tbaa !84
  call void @llvm.lifetime.start.p0(i64 8, ptr %16) #6
  %110 = load ptr, ptr %6, align 8, !tbaa !26
  %111 = getelementptr inbounds nuw %struct.AVFrame, ptr %110, i32 0, i32 0
  %112 = getelementptr inbounds [8 x ptr], ptr %111, i64 0, i64 3
  %113 = load ptr, ptr %112, align 8, !tbaa !84
  %114 = load i32, ptr %7, align 4, !tbaa !38
  %115 = load ptr, ptr %6, align 8, !tbaa !26
  %116 = getelementptr inbounds nuw %struct.AVFrame, ptr %115, i32 0, i32 1
  %117 = getelementptr inbounds [8 x i32], ptr %116, i64 0, i64 3
  %118 = load i32, ptr %117, align 4, !tbaa !38
  %119 = mul nsw i32 %114, %118
  %120 = sext i32 %119 to i64
  %121 = getelementptr inbounds i8, ptr %113, i64 %120
  store ptr %121, ptr %16, align 8, !tbaa !84
  call void @llvm.lifetime.start.p0(i64 4, ptr %17) #6
  store i32 0, ptr %17, align 4, !tbaa !38
  br label %122

122:                                              ; preds = %193, %25
  %123 = load i32, ptr %17, align 4, !tbaa !38
  %124 = load ptr, ptr %5, align 8, !tbaa !26
  %125 = getelementptr inbounds nuw %struct.AVFrame, ptr %124, i32 0, i32 3
  %126 = load i32, ptr %125, align 8, !tbaa !90
  %127 = icmp slt i32 %123, %126
  br i1 %127, label %129, label %128

128:                                              ; preds = %122
  store i32 5, ptr %8, align 4
  call void @llvm.lifetime.end.p0(i64 4, ptr %17) #6
  br label %196

129:                                              ; preds = %122
  %130 = load ptr, ptr %4, align 8, !tbaa !22
  %131 = getelementptr inbounds nuw %struct.NormalizeContext, ptr %130, i32 0, i32 17
  %132 = getelementptr inbounds [3 x [65536 x i16]], ptr %131, i64 0, i64 0
  %133 = load ptr, ptr %9, align 8, !tbaa !84
  %134 = load i32, ptr %17, align 4, !tbaa !38
  %135 = sext i32 %134 to i64
  %136 = getelementptr inbounds i8, ptr %133, i64 %135
  %137 = load i8, ptr %136, align 1, !tbaa !60
  %138 = zext i8 %137 to i64
  %139 = getelementptr inbounds nuw [65536 x i16], ptr %132, i64 0, i64 %138
  %140 = load i16, ptr %139, align 2, !tbaa !67
  %141 = trunc i16 %140 to i8
  %142 = load ptr, ptr %13, align 8, !tbaa !84
  %143 = load i32, ptr %17, align 4, !tbaa !38
  %144 = sext i32 %143 to i64
  %145 = getelementptr inbounds i8, ptr %142, i64 %144
  store i8 %141, ptr %145, align 1, !tbaa !60
  %146 = load ptr, ptr %4, align 8, !tbaa !22
  %147 = getelementptr inbounds nuw %struct.NormalizeContext, ptr %146, i32 0, i32 17
  %148 = getelementptr inbounds [3 x [65536 x i16]], ptr %147, i64 0, i64 1
  %149 = load ptr, ptr %10, align 8, !tbaa !84
  %150 = load i32, ptr %17, align 4, !tbaa !38
  %151 = sext i32 %150 to i64
  %152 = getelementptr inbounds i8, ptr %149, i64 %151
  %153 = load i8, ptr %152, align 1, !tbaa !60
  %154 = zext i8 %153 to i64
  %155 = getelementptr inbounds nuw [65536 x i16], ptr %148, i64 0, i64 %154
  %156 = load i16, ptr %155, align 2, !tbaa !67
  %157 = trunc i16 %156 to i8
  %158 = load ptr, ptr %14, align 8, !tbaa !84
  %159 = load i32, ptr %17, align 4, !tbaa !38
  %160 = sext i32 %159 to i64
  %161 = getelementptr inbounds i8, ptr %158, i64 %160
  store i8 %157, ptr %161, align 1, !tbaa !60
  %162 = load ptr, ptr %4, align 8, !tbaa !22
  %163 = getelementptr inbounds nuw %struct.NormalizeContext, ptr %162, i32 0, i32 17
  %164 = getelementptr inbounds [3 x [65536 x i16]], ptr %163, i64 0, i64 2
  %165 = load ptr, ptr %11, align 8, !tbaa !84
  %166 = load i32, ptr %17, align 4, !tbaa !38
  %167 = sext i32 %166 to i64
  %168 = getelementptr inbounds i8, ptr %165, i64 %167
  %169 = load i8, ptr %168, align 1, !tbaa !60
  %170 = zext i8 %169 to i64
  %171 = getelementptr inbounds nuw [65536 x i16], ptr %164, i64 0, i64 %170
  %172 = load i16, ptr %171, align 2, !tbaa !67
  %173 = trunc i16 %172 to i8
  %174 = load ptr, ptr %15, align 8, !tbaa !84
  %175 = load i32, ptr %17, align 4, !tbaa !38
  %176 = sext i32 %175 to i64
  %177 = getelementptr inbounds i8, ptr %174, i64 %176
  store i8 %173, ptr %177, align 1, !tbaa !60
  %178 = load ptr, ptr %4, align 8, !tbaa !22
  %179 = getelementptr inbounds nuw %struct.NormalizeContext, ptr %178, i32 0, i32 10
  %180 = load i32, ptr %179, align 4, !tbaa !53
  %181 = icmp eq i32 %180, 4
  br i1 %181, label %182, label %192

182:                                              ; preds = %129
  %183 = load ptr, ptr %12, align 8, !tbaa !84
  %184 = load i32, ptr %17, align 4, !tbaa !38
  %185 = sext i32 %184 to i64
  %186 = getelementptr inbounds i8, ptr %183, i64 %185
  %187 = load i8, ptr %186, align 1, !tbaa !60
  %188 = load ptr, ptr %16, align 8, !tbaa !84
  %189 = load i32, ptr %17, align 4, !tbaa !38
  %190 = sext i32 %189 to i64
  %191 = getelementptr inbounds i8, ptr %188, i64 %190
  store i8 %187, ptr %191, align 1, !tbaa !60
  br label %192

192:                                              ; preds = %182, %129
  br label %193

193:                                              ; preds = %192
  %194 = load i32, ptr %17, align 4, !tbaa !38
  %195 = add nsw i32 %194, 1
  store i32 %195, ptr %17, align 4, !tbaa !38
  br label %122, !llvm.loop !97

196:                                              ; preds = %128
  call void @llvm.lifetime.end.p0(i64 8, ptr %16) #6
  call void @llvm.lifetime.end.p0(i64 8, ptr %15) #6
  call void @llvm.lifetime.end.p0(i64 8, ptr %14) #6
  call void @llvm.lifetime.end.p0(i64 8, ptr %13) #6
  call void @llvm.lifetime.end.p0(i64 8, ptr %12) #6
  call void @llvm.lifetime.end.p0(i64 8, ptr %11) #6
  call void @llvm.lifetime.end.p0(i64 8, ptr %10) #6
  call void @llvm.lifetime.end.p0(i64 8, ptr %9) #6
  br label %197

197:                                              ; preds = %196
  %198 = load i32, ptr %7, align 4, !tbaa !38
  %199 = add nsw i32 %198, 1
  store i32 %199, ptr %7, align 4, !tbaa !38
  br label %18, !llvm.loop !98

200:                                              ; preds = %24
  ret void
}