; Function Attrs: nofree norecurse nosync nounwind memory(readwrite, inaccessiblemem: none) uwtable
define internal void @process_planar(ptr noundef readonly captures(none) %0, ptr noundef readonly captures(none) %1, ptr noundef readonly captures(none) %2) #6 {
  %4 = getelementptr inbounds nuw i8, ptr %1, i64 108
  %5 = load i32, ptr %4, align 4, !tbaa !77
  %6 = icmp sgt i32 %5, 0
  br i1 %6, label %.lr.ph53, label %._crit_edge54

.lr.ph53:                                         ; preds = %3
  %7 = getelementptr inbounds nuw i8, ptr %1, i64 16
  %8 = getelementptr inbounds nuw i8, ptr %1, i64 64
  %9 = getelementptr inbounds nuw i8, ptr %1, i64 72
  %10 = getelementptr inbounds nuw i8, ptr %1, i64 8
  %11 = getelementptr inbounds nuw i8, ptr %1, i64 68
  %12 = getelementptr inbounds nuw i8, ptr %1, i64 24
  %13 = getelementptr inbounds nuw i8, ptr %1, i64 76
  %14 = getelementptr inbounds nuw i8, ptr %2, i64 16
  %15 = getelementptr inbounds nuw i8, ptr %2, i64 64
  %16 = getelementptr inbounds nuw i8, ptr %2, i64 72
  %17 = getelementptr inbounds nuw i8, ptr %2, i64 8
  %18 = getelementptr inbounds nuw i8, ptr %2, i64 68
  %19 = getelementptr inbounds nuw i8, ptr %2, i64 24
  %20 = getelementptr inbounds nuw i8, ptr %2, i64 76
  %21 = getelementptr inbounds nuw i8, ptr %1, i64 104
  %22 = getelementptr inbounds nuw i8, ptr %0, i64 192
  %23 = getelementptr inbounds nuw i8, ptr %0, i64 131264
  %24 = getelementptr inbounds nuw i8, ptr %0, i64 262336
  %25 = getelementptr inbounds nuw i8, ptr %0, i64 68
  %26 = load i32, ptr %21, align 8, !tbaa !82
  %27 = icmp sgt i32 %26, 0
  br i1 %27, label %.lr.ph53.split, label %._crit_edge54

._crit_edge54:                                    ; preds = %._crit_edge, %.lr.ph53, %3
  ret void

.lr.ph53.split:                                   ; preds = %.lr.ph53, %._crit_edge
  %28 = phi i32 [ %71, %._crit_edge ], [ %5, %.lr.ph53 ]
  %29 = phi i32 [ %72, %._crit_edge ], [ %26, %.lr.ph53 ]
  %.04951 = phi i32 [ %73, %._crit_edge ], [ 0, %.lr.ph53 ]
  %30 = load ptr, ptr %7, align 8, !tbaa !76
  %31 = load i32, ptr %9, align 8, !tbaa !57
  %32 = mul nsw i32 %31, %.04951
  %33 = sext i32 %32 to i64
  %34 = getelementptr inbounds i8, ptr %30, i64 %33
  %35 = load ptr, ptr %1, align 8, !tbaa !76
  %36 = load i32, ptr %8, align 8, !tbaa !57
  %37 = mul nsw i32 %36, %.04951
  %38 = sext i32 %37 to i64
  %39 = getelementptr inbounds i8, ptr %35, i64 %38
  %40 = load ptr, ptr %10, align 8, !tbaa !76
  %41 = load i32, ptr %11, align 4, !tbaa !57
  %42 = mul nsw i32 %41, %.04951
  %43 = sext i32 %42 to i64
  %44 = getelementptr inbounds i8, ptr %40, i64 %43
  %45 = load ptr, ptr %12, align 8, !tbaa !76
  %46 = load i32, ptr %13, align 4, !tbaa !57
  %47 = mul nsw i32 %46, %.04951
  %48 = sext i32 %47 to i64
  %49 = getelementptr inbounds i8, ptr %45, i64 %48
  %50 = load ptr, ptr %14, align 8, !tbaa !76
  %51 = load i32, ptr %16, align 8, !tbaa !57
  %52 = mul nsw i32 %51, %.04951
  %53 = sext i32 %52 to i64
  %54 = getelementptr inbounds i8, ptr %50, i64 %53
  %55 = load ptr, ptr %2, align 8, !tbaa !76
  %56 = load i32, ptr %15, align 8, !tbaa !57
  %57 = mul nsw i32 %56, %.04951
  %58 = sext i32 %57 to i64
  %59 = getelementptr inbounds i8, ptr %55, i64 %58
  %60 = load ptr, ptr %17, align 8, !tbaa !76
  %61 = load i32, ptr %18, align 4, !tbaa !57
  %62 = mul nsw i32 %61, %.04951
  %63 = sext i32 %62 to i64
  %64 = getelementptr inbounds i8, ptr %60, i64 %63
  %65 = load ptr, ptr %19, align 8, !tbaa !76
  %66 = load i32, ptr %20, align 4, !tbaa !57
  %67 = mul nsw i32 %66, %.04951
  %68 = sext i32 %67 to i64
  %69 = getelementptr inbounds i8, ptr %65, i64 %68
  %70 = icmp sgt i32 %29, 0
  br i1 %70, label %.lr.ph, label %._crit_edge

._crit_edge.loopexit:                             ; preds = %102
  %.pre = load i32, ptr %4, align 4, !tbaa !77
  br label %._crit_edge

._crit_edge:                                      ; preds = %._crit_edge.loopexit, %.lr.ph53.split
  %71 = phi i32 [ %.pre, %._crit_edge.loopexit ], [ %28, %.lr.ph53.split ]
  %72 = phi i32 [ %103, %._crit_edge.loopexit ], [ %29, %.lr.ph53.split ]
  %73 = add nuw nsw i32 %.04951, 1
  %74 = icmp slt i32 %73, %71
  br i1 %74, label %.lr.ph53.split, label %._crit_edge54, !llvm.loop !89

.lr.ph:                                           ; preds = %.lr.ph53.split, %102
  %indvars.iv = phi i64 [ %indvars.iv.next, %102 ], [ 0, %.lr.ph53.split ]
  %75 = getelementptr inbounds nuw i8, ptr %34, i64 %indvars.iv
  %76 = load i8, ptr %75, align 1, !tbaa !73
  %77 = zext i8 %76 to i64
  %78 = getelementptr inbounds nuw [65536 x i16], ptr %22, i64 0, i64 %77
  %79 = load i16, ptr %78, align 2, !tbaa !46
  %80 = trunc i16 %79 to i8
  %81 = getelementptr inbounds nuw i8, ptr %54, i64 %indvars.iv
  store i8 %80, ptr %81, align 1, !tbaa !73
  %82 = getelementptr inbounds nuw i8, ptr %39, i64 %indvars.iv
  %83 = load i8, ptr %82, align 1, !tbaa !73
  %84 = zext i8 %83 to i64
  %85 = getelementptr inbounds nuw [65536 x i16], ptr %23, i64 0, i64 %84
  %86 = load i16, ptr %85, align 2, !tbaa !46
  %87 = trunc i16 %86 to i8
  %88 = getelementptr inbounds nuw i8, ptr %59, i64 %indvars.iv
  store i8 %87, ptr %88, align 1, !tbaa !73
  %89 = getelementptr inbounds nuw i8, ptr %44, i64 %indvars.iv
  %90 = load i8, ptr %89, align 1, !tbaa !73
  %91 = zext i8 %90 to i64
  %92 = getelementptr inbounds nuw [65536 x i16], ptr %24, i64 0, i64 %91
  %93 = load i16, ptr %92, align 2, !tbaa !46
  %94 = trunc i16 %93 to i8
  %95 = getelementptr inbounds nuw i8, ptr %64, i64 %indvars.iv
  store i8 %94, ptr %95, align 1, !tbaa !73
  %96 = load i32, ptr %25, align 4, !tbaa !69
  %97 = icmp eq i32 %96, 4
  br i1 %97, label %98, label %102

98:                                               ; preds = %.lr.ph
  %99 = getelementptr inbounds nuw i8, ptr %49, i64 %indvars.iv
  %100 = load i8, ptr %99, align 1, !tbaa !73
  %101 = getelementptr inbounds nuw i8, ptr %69, i64 %indvars.iv
  store i8 %100, ptr %101, align 1, !tbaa !73
  br label %102

102:                                              ; preds = %.lr.ph, %98
  %indvars.iv.next = add nuw nsw i64 %indvars.iv, 1
  %103 = load i32, ptr %21, align 8, !tbaa !82
  %104 = sext i32 %103 to i64
  %105 = icmp slt i64 %indvars.iv.next, %104
  br i1 %105, label %.lr.ph, label %._crit_edge.loopexit, !llvm.loop !91
}